; Function Attrs: mustprogress uwtable
define void @_ZNK13FilterFractal10filterInfoEi(ptr dead_on_unwind noalias nocapture writable writeonly sret(%class.QString) align 8 %0, ptr nocapture nonnull readnone align 8 %1, i32 noundef %2) unnamed_addr #9 align 2 personality ptr @__gxx_personality_v0 {
  %4 = alloca %class.QString, align 8
  %5 = alloca %class.QString, align 8
  %6 = alloca %class.QString, align 8
  %7 = alloca %class.QString, align 8
  %8 = alloca %class.QString, align 8
  store ptr @_ZN10QArrayData11shared_nullE, ptr %7, align 8
  store ptr @_ZN10QArrayData11shared_nullE, ptr %8, align 8
  switch i32 %2, label %23 [
    i32 0, label %9
    i32 1, label %9
    i32 2, label %17
  ]

9:                                                ; preds = %3, %3
  call void @llvm.lifetime.start.p0(i64 8, ptr nonnull %6)
  invoke void @_ZN7QString15fromUtf8_helperEPKci(ptr dead_on_unwind nonnull writable sret(%class.QString) align 8 %6, ptr noundef nonnull @.str.14, i32 noundef 2018)
          to label %.noexc unwind label %15

.noexc:                                           ; preds = %9
  %10 = load ptr, ptr %8, align 8
  %11 = load ptr, ptr %6, align 8
  store ptr %11, ptr %8, align 8
  store ptr %10, ptr %6, align 8
  %12 = load atomic i32, ptr %10 monotonic, align 4
  switch i32 %12, label %_ZN9QtPrivate8RefCount5derefEv.exit.i.i [
    i32 0, label %_ZN9QtPrivate8RefCount5derefEv.exit.thread2.i.i
    i32 -1, label %25
  ]

_ZN9QtPrivate8RefCount5derefEv.exit.i.i:          ; preds = %.noexc
  %13 = atomicrmw sub ptr %10, i32 1 seq_cst, align 4
  %.not.i.i = icmp eq i32 %13, 1
  br i1 %.not.i.i, label %_ZN9QtPrivate8RefCount5derefEv.exit._ZN9QtPrivate8RefCount5derefEv.exit.thread2_crit_edge.i.i, label %25

_ZN9QtPrivate8RefCount5derefEv.exit._ZN9QtPrivate8RefCount5derefEv.exit.thread2_crit_edge.i.i: ; preds = %_ZN9QtPrivate8RefCount5derefEv.exit.i.i
  %.pre.i.i = load ptr, ptr %6, align 8
  br label %_ZN9QtPrivate8RefCount5derefEv.exit.thread2.i.i

_ZN9QtPrivate8RefCount5derefEv.exit.thread2.i.i:  ; preds = %_ZN9QtPrivate8RefCount5derefEv.exit._ZN9QtPrivate8RefCount5derefEv.exit.thread2_crit_edge.i.i, %.noexc
  %14 = phi ptr [ %.pre.i.i, %_ZN9QtPrivate8RefCount5derefEv.exit._ZN9QtPrivate8RefCount5derefEv.exit.thread2_crit_edge.i.i ], [ %10, %.noexc ]
  call void @_ZN10QArrayData10deallocateEPS_mm(ptr noundef %14, i64 noundef 2, i64 noundef 8) #25
  br label %25

15:                                               ; preds = %27, %23, %17, %9
  %16 = landingpad { ptr, i32 }
          cleanup
  br label %.body

.body:                                            ; preds = %34, %15
  %eh.lpad-body = phi { ptr, i32 } [ %16, %15 ], [ %35, %34 ]
  call void @_ZN7QStringD2Ev(ptr noundef nonnull align 8 dereferenceable(8) %8) #25
  call void @_ZN7QStringD2Ev(ptr noundef nonnull align 8 dereferenceable(8) %7) #25
  resume { ptr, i32 } %eh.lpad-body

17:                                               ; preds = %3
  call void @llvm.lifetime.start.p0(i64 8, ptr nonnull %5)
  invoke void @_ZN7QString15fromUtf8_helperEPKci(ptr dead_on_unwind nonnull writable sret(%class.QString) align 8 %5, ptr noundef nonnull @.str.15, i32 noundef 738)
          to label %.noexc8 unwind label %15

.noexc8:                                          ; preds = %17
  %18 = load ptr, ptr %8, align 8
  %19 = load ptr, ptr %5, align 8
  store ptr %19, ptr %8, align 8
  store ptr %18, ptr %5, align 8
  %20 = load atomic i32, ptr %18 monotonic, align 4
  switch i32 %20, label %_ZN9QtPrivate8RefCount5derefEv.exit.i.i4 [
    i32 0, label %_ZN9QtPrivate8RefCount5derefEv.exit.thread2.i.i3
    i32 -1, label %.thread
  ]

_ZN9QtPrivate8RefCount5derefEv.exit.i.i4:         ; preds = %.noexc8
  %21 = atomicrmw sub ptr %18, i32 1 seq_cst, align 4
  %.not.i.i5 = icmp eq i32 %21, 1
  br i1 %.not.i.i5, label %_ZN9QtPrivate8RefCount5derefEv.exit._ZN9QtPrivate8RefCount5derefEv.exit.thread2_crit_edge.i.i6, label %.thread

_ZN9QtPrivate8RefCount5derefEv.exit._ZN9QtPrivate8RefCount5derefEv.exit.thread2_crit_edge.i.i6: ; preds = %_ZN9QtPrivate8RefCount5derefEv.exit.i.i4
  %.pre.i.i7 = load ptr, ptr %5, align 8
  br label %_ZN9QtPrivate8RefCount5derefEv.exit.thread2.i.i3

_ZN9QtPrivate8RefCount5derefEv.exit.thread2.i.i3: ; preds = %_ZN9QtPrivate8RefCount5derefEv.exit._ZN9QtPrivate8RefCount5derefEv.exit.thread2_crit_edge.i.i6, %.noexc8
  %22 = phi ptr [ %.pre.i.i7, %_ZN9QtPrivate8RefCount5derefEv.exit._ZN9QtPrivate8RefCount5derefEv.exit.thread2_crit_edge.i.i6 ], [ %18, %.noexc8 ]
  call void @_ZN10QArrayData10deallocateEPS_mm(ptr noundef %22, i64 noundef 2, i64 noundef 8) #25
  br label %.thread

.thread:                                          ; preds = %_ZN9QtPrivate8RefCount5derefEv.exit.thread2.i.i3, %_ZN9QtPrivate8RefCount5derefEv.exit.i.i4, %.noexc8
  call void @llvm.lifetime.end.p0(i64 8, ptr nonnull %5)
  br label %36

23:                                               ; preds = %3
  %24 = invoke noundef ptr @_ZN7QString16fromAscii_helperEPKci(ptr noundef nonnull @.str.16, i32 noundef 5)
          to label %_ZN7QStringC2EPKc.exit unwind label %15

_ZN7QStringC2EPKc.exit:                           ; preds = %23
  store ptr %24, ptr %0, align 8
  %.pre = load ptr, ptr %8, align 8
  br label %38

25:                                               ; preds = %_ZN9QtPrivate8RefCount5derefEv.exit.thread2.i.i, %_ZN9QtPrivate8RefCount5derefEv.exit.i.i, %.noexc
  call void @llvm.lifetime.end.p0(i64 8, ptr nonnull %6)
  %26 = icmp eq i32 %2, 1
  br i1 %26, label %27, label %36

27:                                               ; preds = %25
  call void @llvm.lifetime.start.p0(i64 8, ptr nonnull %4)
  invoke void @_ZN7QString15fromUtf8_helperEPKci(ptr dead_on_unwind nonnull writable sret(%class.QString) align 8 %4, ptr noundef nonnull @.str.17, i32 noundef 86)
          to label %.noexc16 unwind label %15

.noexc16:                                         ; preds = %27
  %28 = invoke noundef nonnull align 8 dereferenceable(8) ptr @_ZN7QString6appendERKS_(ptr noundef nonnull align 8 dereferenceable(8) %8, ptr noundef nonnull align 8 dereferenceable(8) %4)
          to label %29 unwind label %34

29:                                               ; preds = %.noexc16
  %30 = load ptr, ptr %4, align 8
  %31 = load atomic i32, ptr %30 monotonic, align 4
  switch i32 %31, label %_ZN9QtPrivate8RefCount5derefEv.exit.i.i12 [
    i32 0, label %_ZN9QtPrivate8RefCount5derefEv.exit.thread2.i.i11
    i32 -1, label %_ZN7QStringpLEPKc.exit
  ]

_ZN9QtPrivate8RefCount5derefEv.exit.i.i12:        ; preds = %29
  %32 = atomicrmw sub ptr %30, i32 1 seq_cst, align 4
  %.not.i.i13 = icmp eq i32 %32, 1
  br i1 %.not.i.i13, label %_ZN9QtPrivate8RefCount5derefEv.exit._ZN9QtPrivate8RefCount5derefEv.exit.thread2_crit_edge.i.i14, label %_ZN7QStringpLEPKc.exit

_ZN9QtPrivate8RefCount5derefEv.exit._ZN9QtPrivate8RefCount5derefEv.exit.thread2_crit_edge.i.i14: ; preds = %_ZN9QtPrivate8RefCount5derefEv.exit.i.i12
  %.pre.i.i15 = load ptr, ptr %4, align 8
  br label %_ZN9QtPrivate8RefCount5derefEv.exit.thread2.i.i11

_ZN9QtPrivate8RefCount5derefEv.exit.thread2.i.i11: ; preds = %_ZN9QtPrivate8RefCount5derefEv.exit._ZN9QtPrivate8RefCount5derefEv.exit.thread2_crit_edge.i.i14, %29
  %33 = phi ptr [ %.pre.i.i15, %_ZN9QtPrivate8RefCount5derefEv.exit._ZN9QtPrivate8RefCount5derefEv.exit.thread2_crit_edge.i.i14 ], [ %30, %29 ]
  call void @_ZN10QArrayData10deallocateEPS_mm(ptr noundef %33, i64 noundef 2, i64 noundef 8) #25
  br label %_ZN7QStringpLEPKc.exit

34:                                               ; preds = %.noexc16
  %35 = landingpad { ptr, i32 }
          cleanup
  call void @_ZN7QStringD2Ev(ptr noundef nonnull align 8 dereferenceable(8) %4) #25
  br label %.body

_ZN7QStringpLEPKc.exit:                           ; preds = %29, %_ZN9QtPrivate8RefCount5derefEv.exit.i.i12, %_ZN9QtPrivate8RefCount5derefEv.exit.thread2.i.i11
  call void @llvm.lifetime.end.p0(i64 8, ptr nonnull %4)
  br label %36

36:                                               ; preds = %.thread, %_ZN7QStringpLEPKc.exit, %25
  %37 = load ptr, ptr %8, align 8
  store ptr %37, ptr %0, align 8
  store ptr @_ZN10QArrayData11shared_nullE, ptr %8, align 8
  br label %38

38:                                               ; preds = %_ZN7QStringC2EPKc.exit, %36
  %39 = phi ptr [ %.pre, %_ZN7QStringC2EPKc.exit ], [ @_ZN10QArrayData11shared_nullE, %36 ]
  %40 = load atomic i32, ptr %39 monotonic, align 4
  switch i32 %40, label %_ZN9QtPrivate8RefCount5derefEv.exit.i [
    i32 0, label %_ZN9QtPrivate8RefCount5derefEv.exit.thread2.i
    i32 -1, label %_ZN7QStringD2Ev.exit
  ]

_ZN9QtPrivate8RefCount5derefEv.exit.i:            ; preds = %38
  %41 = atomicrmw sub ptr %39, i32 1 seq_cst, align 4
  %.not.i = icmp eq i32 %41, 1
  br i1 %.not.i, label %_ZN9QtPrivate8RefCount5derefEv.exit._ZN9QtPrivate8RefCount5derefEv.exit.thread2_crit_edge.i, label %_ZN7QStringD2Ev.exit

_ZN9QtPrivate8RefCount5derefEv.exit._ZN9QtPrivate8RefCount5derefEv.exit.thread2_crit_edge.i: ; preds = %_ZN9QtPrivate8RefCount5derefEv.exit.i
  %.pre.i = load ptr, ptr %8, align 8
  br label %_ZN9QtPrivate8RefCount5derefEv.exit.thread2.i

_ZN9QtPrivate8RefCount5derefEv.exit.thread2.i:    ; preds = %_ZN9QtPrivate8RefCount5derefEv.exit._ZN9QtPrivate8RefCount5derefEv.exit.thread2_crit_edge.i, %38
  %42 = phi ptr [ %.pre.i, %_ZN9QtPrivate8RefCount5derefEv.exit._ZN9QtPrivate8RefCount5derefEv.exit.thread2_crit_edge.i ], [ %39, %38 ]
  call void @_ZN10QArrayData10deallocateEPS_mm(ptr noundef %42, i64 noundef 2, i64 noundef 8) #25
  br label %_ZN7QStringD2Ev.exit

_ZN7QStringD2Ev.exit:                             ; preds = %38, %_ZN9QtPrivate8RefCount5derefEv.exit.i, %_ZN9QtPrivate8RefCount5derefEv.exit.thread2.i
  %43 = load ptr, ptr %7, align 8
  %44 = load atomic i32, ptr %43 monotonic, align 4
  switch i32 %44, label %_ZN9QtPrivate8RefCount5derefEv.exit.i18 [
    i32 0, label %_ZN9QtPrivate8RefCount5derefEv.exit.thread2.i17
    i32 -1, label %_ZN7QStringD2Ev.exit22
  ]

_ZN9QtPrivate8RefCount5derefEv.exit.i18:          ; preds = %_ZN7QStringD2Ev.exit
  %45 = atomicrmw sub ptr %43, i32 1 seq_cst, align 4
  %.not.i19 = icmp eq i32 %45, 1
  br i1 %.not.i19, label %_ZN9QtPrivate8RefCount5derefEv.exit._ZN9QtPrivate8RefCount5derefEv.exit.thread2_crit_edge.i20, label %_ZN7QStringD2Ev.exit22

_ZN9QtPrivate8RefCount5derefEv.exit._ZN9QtPrivate8RefCount5derefEv.exit.thread2_crit_edge.i20: ; preds = %_ZN9QtPrivate8RefCount5derefEv.exit.i18
  %.pre.i21 = load ptr, ptr %7, align 8
  br label %_ZN9QtPrivate8RefCount5derefEv.exit.thread2.i17

_ZN9QtPrivate8RefCount5derefEv.exit.thread2.i17:  ; preds = %_ZN9QtPrivate8RefCount5derefEv.exit._ZN9QtPrivate8RefCount5derefEv.exit.thread2_crit_edge.i20, %_ZN7QStringD2Ev.exit
  %46 = phi ptr [ %.pre.i21, %_ZN9QtPrivate8RefCount5derefEv.exit._ZN9QtPrivate8RefCount5derefEv.exit.thread2_crit_edge.i20 ], [ %43, %_ZN7QStringD2Ev.exit ]
  call void @_ZN10QArrayData10deallocateEPS_mm(ptr noundef %46, i64 noundef 2, i64 noundef 8) #25
  br label %_ZN7QStringD2Ev.exit22

_ZN7QStringD2Ev.exit22:                           ; preds = %_ZN7QStringD2Ev.exit, %_ZN9QtPrivate8RefCount5derefEv.exit.i18, %_ZN9QtPrivate8RefCount5derefEv.exit.thread2.i17
  ret void
}